; Function Attrs: mustprogress uwtable
define void @_ZN32pxrInternal_v0_24__pxrReserved__17_NurbsPatchToMesh28_GetUVVertexCountDataSourcesERKSt10shared_ptrINS_21HdContainerDataSourceEE(ptr dead_on_unwind noalias writable writeonly sret(%"struct.std::pair") align 8 captures(none) %0, ptr noundef nonnull align 8 dereferenceable(16) %1) local_unnamed_addr #3 personality ptr @__gxx_personality_v0 {
  %3 = alloca %"class.pxrInternal_v0_24__pxrReserved__::HdNurbsPatchSchema", align 8
  %4 = alloca %"class.std::shared_ptr.40", align 8
  %5 = alloca %"class.std::shared_ptr.40", align 8
  call void @_ZN32pxrInternal_v0_24__pxrReserved__18HdNurbsPatchSchema13GetFromParentERKSt10shared_ptrINS_21HdContainerDataSourceEE(ptr dead_on_unwind nonnull writable sret(%"class.pxrInternal_v0_24__pxrReserved__::HdNurbsPatchSchema") align 8 %3, ptr noundef nonnull align 8 dereferenceable(16) %1)
  invoke void @_ZNK32pxrInternal_v0_24__pxrReserved__18HdNurbsPatchSchema15GetUVertexCountEv(ptr dead_on_unwind nonnull writable sret(%"class.std::shared_ptr.40") align 8 %4, ptr noundef nonnull align 8 dereferenceable(16) %3)
          to label %6 unwind label %50

6:                                                ; preds = %2
  invoke void @_ZNK32pxrInternal_v0_24__pxrReserved__18HdNurbsPatchSchema15GetVVertexCountEv(ptr dead_on_unwind nonnull writable sret(%"class.std::shared_ptr.40") align 8 %5, ptr noundef nonnull align 8 dereferenceable(16) %3)
          to label %_ZNSt10shared_ptrIN32pxrInternal_v0_24__pxrReserved__24HdTypedSampledDataSourceIiEEED2Ev.exit10 unwind label %52

_ZNSt10shared_ptrIN32pxrInternal_v0_24__pxrReserved__24HdTypedSampledDataSourceIiEEED2Ev.exit10: ; preds = %6
  %7 = load ptr, ptr %4, align 8
  store ptr %7, ptr %0, align 8
  %8 = getelementptr inbounds nuw i8, ptr %0, i64 8
  %9 = getelementptr inbounds nuw i8, ptr %4, i64 8
  %10 = load ptr, ptr %9, align 8
  store ptr null, ptr %9, align 8
  store ptr %10, ptr %8, align 8
  store ptr null, ptr %4, align 8
  %11 = getelementptr inbounds nuw i8, ptr %0, i64 16
  %12 = load ptr, ptr %5, align 8
  store ptr %12, ptr %11, align 8
  %13 = getelementptr inbounds nuw i8, ptr %0, i64 24
  %14 = getelementptr inbounds nuw i8, ptr %5, i64 8
  %15 = load ptr, ptr %14, align 8
  store ptr null, ptr %14, align 8
  store ptr %15, ptr %13, align 8
  store ptr null, ptr %5, align 8
  %.phi.trans.insert = getelementptr inbounds nuw i8, ptr %3, i64 8
  %.pre = load ptr, ptr %.phi.trans.insert, align 8
  %.not.i.i.i.i.i = icmp eq ptr %.pre, null
  br i1 %.not.i.i.i.i.i, label %_ZN32pxrInternal_v0_24__pxrReserved__18HdNurbsPatchSchemaD2Ev.exit, label %16

16:                                               ; preds = %_ZNSt10shared_ptrIN32pxrInternal_v0_24__pxrReserved__24HdTypedSampledDataSourceIiEEED2Ev.exit10
  %17 = getelementptr inbounds nuw i8, ptr %.pre, i64 8
  %18 = load atomic i64, ptr %17 acquire, align 8
  %19 = icmp eq i64 %18, 4294967297
  %20 = trunc i64 %18 to i32
  br i1 %19, label %21, label %26

21:                                               ; preds = %16
  store i32 0, ptr %17, align 8
  %22 = getelementptr inbounds nuw i8, ptr %.pre, i64 12
  store i32 0, ptr %22, align 4
  %23 = load ptr, ptr %.pre, align 8
  %24 = getelementptr inbounds nuw i8, ptr %23, i64 16
  %25 = load ptr, ptr %24, align 8
  call void %25(ptr noundef nonnull align 8 dereferenceable(16) %.pre) #21
  br label %_ZNSt16_Sp_counted_baseILN9__gnu_cxx12_Lock_policyE2EE24_M_release_last_use_coldEv.exit.sink.split.i.i.i.i.i.i

26:                                               ; preds = %16
  %27 = load i8, ptr @__libc_single_threaded, align 1
  %.not.i.i.i.i.i.i11 = icmp eq i8 %27, 0
  br i1 %.not.i.i.i.i.i.i11, label %30, label %28

28:                                               ; preds = %26
  %29 = add nsw i32 %20, -1
  store i32 %29, ptr %17, align 4
  br label %32

30:                                               ; preds = %26
  %31 = atomicrmw volatile add ptr %17, i32 -1 acq_rel, align 4
  br label %32

32:                                               ; preds = %30, %28
  %.0.i.i.i.i.i.i12 = phi i32 [ %20, %28 ], [ %31, %30 ]
  %33 = icmp eq i32 %.0.i.i.i.i.i.i12, 1
  br i1 %33, label %34, label %_ZN32pxrInternal_v0_24__pxrReserved__18HdNurbsPatchSchemaD2Ev.exit

34:                                               ; preds = %32
  %35 = load ptr, ptr %.pre, align 8
  %36 = getelementptr inbounds nuw i8, ptr %35, i64 16
  %37 = load ptr, ptr %36, align 8
  call void %37(ptr noundef nonnull align 8 dereferenceable(16) %.pre) #21
  %38 = getelementptr inbounds nuw i8, ptr %.pre, i64 12
  %39 = load i8, ptr @__libc_single_threaded, align 1
  %.not.i.i.i.i.i.i.i.i = icmp eq i8 %39, 0
  br i1 %.not.i.i.i.i.i.i.i.i, label %43, label %40

40:                                               ; preds = %34
  %41 = load i32, ptr %38, align 4
  %42 = add nsw i32 %41, -1
  store i32 %42, ptr %38, align 4
  br label %45

43:                                               ; preds = %34
  %44 = atomicrmw volatile add ptr %38, i32 -1 acq_rel, align 4
  br label %45

45:                                               ; preds = %43, %40
  %.0.i.i.i.i.i.i.i.i = phi i32 [ %41, %40 ], [ %44, %43 ]
  %46 = icmp eq i32 %.0.i.i.i.i.i.i.i.i, 1
  br i1 %46, label %_ZNSt16_Sp_counted_baseILN9__gnu_cxx12_Lock_policyE2EE24_M_release_last_use_coldEv.exit.sink.split.i.i.i.i.i.i, label %_ZN32pxrInternal_v0_24__pxrReserved__18HdNurbsPatchSchemaD2Ev.exit

_ZNSt16_Sp_counted_baseILN9__gnu_cxx12_Lock_policyE2EE24_M_release_last_use_coldEv.exit.sink.split.i.i.i.i.i.i: ; preds = %45, %21
  %47 = load ptr, ptr %.pre, align 8
  %48 = getelementptr inbounds nuw i8, ptr %47, i64 24
  %49 = load ptr, ptr %48, align 8
  call void %49(ptr noundef nonnull align 8 dereferenceable(16) %.pre) #21
  br label %_ZN32pxrInternal_v0_24__pxrReserved__18HdNurbsPatchSchemaD2Ev.exit

_ZN32pxrInternal_v0_24__pxrReserved__18HdNurbsPatchSchemaD2Ev.exit: ; preds = %_ZNSt10shared_ptrIN32pxrInternal_v0_24__pxrReserved__24HdTypedSampledDataSourceIiEEED2Ev.exit10, %32, %45, %_ZNSt16_Sp_counted_baseILN9__gnu_cxx12_Lock_policyE2EE24_M_release_last_use_coldEv.exit.sink.split.i.i.i.i.i.i
  ret void

50:                                               ; preds = %2
  %51 = landingpad { ptr, i32 }
          cleanup
  br label %54

52:                                               ; preds = %6
  %53 = landingpad { ptr, i32 }
          cleanup
  call void @_ZNSt10shared_ptrIN32pxrInternal_v0_24__pxrReserved__24HdTypedSampledDataSourceIiEEED2Ev(ptr noundef nonnull align 8 dereferenceable(16) %4) #21
  br label %54

54:                                               ; preds = %52, %50
  %.pn = phi { ptr, i32 } [ %53, %52 ], [ %51, %50 ]
  call void @_ZN32pxrInternal_v0_24__pxrReserved__18HdNurbsPatchSchemaD2Ev(ptr noundef nonnull align 8 dereferenceable(16) %3) #21
  resume { ptr, i32 } %.pn
}